target datalayout = "e-m:e-p270:32:32-p271:32:32-p272:64:64-i64:64-i128:128-f80:128-n8:16:32:64-S128"
target triple = "x86_64-pc-linux-gnu"

%struct.ckh_t = type { i64, i64, i32, i32, ptr, ptr, ptr }
%struct.prof_tdata_s = type { ptr, i64, i64, %struct.anon, i64, %struct.ckh_t, [16 x i8], i8, i8, i8, i8, i8, i8, i8, %struct.prof_cnt_s, ptr }
%struct.anon = type { ptr, ptr }
%struct.prof_cnt_s = type { i64, i64, i64, i64, i64, i64, i64, i64 }

; Function Attrs: nounwind uwtable
define internal ptr @tdata_tree_iter_recurse(ptr noundef %0, ptr noundef %1, ptr noundef %2, ptr noundef %3) #0 {
  %5 = alloca ptr, align 8
  %6 = alloca ptr, align 8
  %7 = alloca ptr, align 8
  %8 = alloca ptr, align 8
  %9 = alloca ptr, align 8
  %10 = alloca ptr, align 8
  %11 = alloca i32, align 4
  store ptr %0, ptr %6, align 8, !tbaa !9
  store ptr %1, ptr %7, align 8, !tbaa !21
  store ptr %2, ptr %8, align 8, !tbaa !9
  store ptr %3, ptr %9, align 8, !tbaa !9
  %12 = load ptr, ptr %7, align 8, !tbaa !21
  %13 = icmp eq ptr %12, null
  br i1 %13, label %14, label %15

14:                                               ; preds = %4
  store ptr null, ptr %5, align 8
  br label %47

15:                                               ; preds = %4
  call void @llvm.lifetime.start.p0(i64 8, ptr %10) #14
  %16 = load ptr, ptr %6, align 8, !tbaa !9
  %17 = load ptr, ptr %7, align 8, !tbaa !21
  %18 = getelementptr inbounds nuw %struct.prof_tdata_s, ptr %17, i32 0, i32 3
  %19 = getelementptr inbounds nuw %struct.anon, ptr %18, i32 0, i32 0
  %20 = load ptr, ptr %19, align 8, !tbaa !114
  %21 = load ptr, ptr %8, align 8, !tbaa !9
  %22 = load ptr, ptr %9, align 8, !tbaa !9
  %23 = call ptr @tdata_tree_iter_recurse(ptr noundef %16, ptr noundef %20, ptr noundef %21, ptr noundef %22)
  store ptr %23, ptr %10, align 8, !tbaa !21
  %24 = icmp ne ptr %23, null
  br i1 %24, label %32, label %25

25:                                               ; preds = %15
  %26 = load ptr, ptr %8, align 8, !tbaa !9
  %27 = load ptr, ptr %6, align 8, !tbaa !9
  %28 = load ptr, ptr %7, align 8, !tbaa !21
  %29 = load ptr, ptr %9, align 8, !tbaa !9
  %30 = call ptr %26(ptr noundef %27, ptr noundef %28, ptr noundef %29)
  store ptr %30, ptr %10, align 8, !tbaa !21
  %31 = icmp ne ptr %30, null
  br i1 %31, label %32, label %34

32:                                               ; preds = %25, %15
  %33 = load ptr, ptr %10, align 8, !tbaa !21
  store ptr %33, ptr %5, align 8
  store i32 1, ptr %11, align 4
  br label %46

34:                                               ; preds = %25
  %35 = load ptr, ptr %6, align 8, !tbaa !9
  %36 = load ptr, ptr %7, align 8, !tbaa !21
  %37 = getelementptr inbounds nuw %struct.prof_tdata_s, ptr %36, i32 0, i32 3
  %38 = getelementptr inbounds nuw %struct.anon, ptr %37, i32 0, i32 1
  %39 = load ptr, ptr %38, align 8, !tbaa !115
  %40 = ptrtoint ptr %39 to i64
  %41 = and i64 %40, -2
  %42 = inttoptr i64 %41 to ptr
  %43 = load ptr, ptr %8, align 8, !tbaa !9
  %44 = load ptr, ptr %9, align 8, !tbaa !9
  %45 = call ptr @tdata_tree_iter_recurse(ptr noundef %35, ptr noundef %42, ptr noundef %43, ptr noundef %44)
  store ptr %45, ptr %5, align 8
  store i32 1, ptr %11, align 4
  br label %46

46:                                               ; preds = %34, %32
  call void @llvm.lifetime.end.p0(i64 8, ptr %10) #14
  br label %47

47:                                               ; preds = %46, %14
  %48 = load ptr, ptr %5, align 8
  ret ptr %48
}