; Function Attrs: nounwind uwtable
define internal fastcc ptr @tdata_tree_iter_recurse(ptr noundef %0, ptr noundef readonly captures(none) %1, ptr noundef %2) unnamed_addr #0 {
  %4 = icmp eq ptr %0, null
  br i1 %4, label %._crit_edge, label %.lr.ph

.lr.ph:                                           ; preds = %3, %tailrecurse
  %.tr3 = phi ptr [ %14, %tailrecurse ], [ %0, %3 ]
  %5 = getelementptr inbounds nuw i8, ptr %.tr3, i64 24
  %6 = load ptr, ptr %5, align 8, !tbaa !39
  %7 = tail call fastcc ptr @tdata_tree_iter_recurse(ptr noundef %6, ptr noundef %1, ptr noundef %2)
  %.not = icmp eq ptr %7, null
  br i1 %.not, label %8, label %._crit_edge

8:                                                ; preds = %.lr.ph
  %9 = tail call ptr %1(ptr noundef nonnull @tdatas, ptr noundef nonnull %.tr3, ptr noundef %2) #12, !callees !109
  %.not19 = icmp eq ptr %9, null
  br i1 %.not19, label %tailrecurse, label %._crit_edge

tailrecurse:                                      ; preds = %8
  %10 = getelementptr inbounds nuw i8, ptr %.tr3, i64 32
  %11 = load ptr, ptr %10, align 8, !tbaa !40
  %12 = ptrtoint ptr %11 to i64
  %13 = and i64 %12, -2
  %14 = inttoptr i64 %13 to ptr
  %15 = icmp eq i64 %13, 0
  br i1 %15, label %._crit_edge, label %.lr.ph

._crit_edge:                                      ; preds = %tailrecurse, %.lr.ph, %8, %3
  %.015 = phi ptr [ null, %3 ], [ %9, %8 ], [ %7, %.lr.ph ], [ null, %tailrecurse ]
  ret ptr %.015
}